target datalayout = "e-m:e-p270:32:32-p271:32:32-p272:64:64-i64:64-i128:128-f80:128-n8:16:32:64-S128"
target triple = "x86_64-pc-linux-gnu"

%struct._zval_struct = type { %union._zend_value, %union.anon, %union.anon.2 }
%union._zend_value = type { i64 }
%union.anon = type { i32 }
%union.anon.2 = type { i32 }
%struct._zend_array = type { %struct._zend_refcounted_h, %union.anon.4, i32, %union.anon.6, i32, i32, i32, i32, i64, ptr }
%struct._zend_refcounted_h = type { i32, %union.anon.3 }
%union.anon.3 = type { i32 }
%union.anon.4 = type { i32 }
%union.anon.6 = type { ptr }
%struct._zend_object = type { %struct._zend_refcounted_h, i32, i32, ptr, ptr, ptr, [1 x %struct._zval_struct] }
%struct._php_sqlite3_result_object = type { ptr, ptr, i8, i32, ptr, %struct._zend_object }
%struct._zend_class_entry = type { i8, ptr, %union.anon.8, i32, i32, i32, i32, ptr, ptr, ptr, %struct._zend_array, %struct._zend_array, %struct._zend_array, ptr, ptr, ptr, ptr, ptr, ptr, ptr, ptr, ptr, ptr, ptr, ptr, ptr, ptr, ptr, ptr, ptr, ptr, ptr, %union.anon.9, ptr, ptr, ptr, ptr, i32, i32, i32, i32, %union.anon.10, ptr, ptr, ptr, ptr, i32, ptr, ptr, %union.anon.11 }
%union.anon.8 = type { ptr }
%union.anon.9 = type { ptr }
%union.anon.10 = type { ptr }
%union.anon.11 = type { %struct.anon.12 }
%struct.anon.12 = type { ptr, i32, i32 }

; Function Attrs: alwaysinline nounwind uwtable
define internal i64 @zend_object_properties_size(ptr noundef %0) #8 {
  %2 = alloca ptr, align 8
  store ptr %0, ptr %2, align 8, !tbaa !61
  %3 = load ptr, ptr %2, align 8, !tbaa !61
  %4 = getelementptr inbounds nuw %struct._zend_class_entry, ptr %3, i32 0, i32 5
  %5 = load i32, ptr %4, align 8, !tbaa !198
  %6 = load ptr, ptr %2, align 8, !tbaa !61
  %7 = getelementptr inbounds nuw %struct._zend_class_entry, ptr %6, i32 0, i32 4
  %8 = load i32, ptr %7, align 4, !tbaa !224
  %9 = and i32 %8, 2048
  %10 = icmp ne i32 %9, 0
  %11 = select i1 %10, i32 0, i32 1
  %12 = sub nsw i32 %5, %11
  %13 = sext i32 %12 to i64
  %14 = mul i64 16, %13
  ret i64 %14
}

; Function Attrs: alwaysinline nounwind uwtable
define internal ptr @zend_object_alloc(i64 noundef %0, ptr noundef %1) #8 {
  %3 = alloca i64, align 8
  %4 = alloca ptr, align 8
  %5 = alloca ptr, align 8
  store i64 %0, ptr %3, align 8, !tbaa !11
  store ptr %1, ptr %4, align 8, !tbaa !61
  call void @llvm.lifetime.start.p0(i64 8, ptr %5) #15
  %6 = load i64, ptr %3, align 8, !tbaa !11
  %7 = load ptr, ptr %4, align 8, !tbaa !61
  %8 = call i64 @zend_object_properties_size(ptr noundef %7)
  %9 = add i64 %6, %8
  %10 = call noalias ptr @_emalloc(i64 noundef %9) #18
  store ptr %10, ptr %5, align 8, !tbaa !70
  %11 = load ptr, ptr %5, align 8, !tbaa !70
  %12 = load i64, ptr %3, align 8, !tbaa !11
  %13 = sub i64 %12, 56
  call void @llvm.memset.p0.i64(ptr align 1 %11, i8 0, i64 %13, i1 false)
  %14 = load ptr, ptr %5, align 8, !tbaa !70
  call void @llvm.lifetime.end.p0(i64 8, ptr %5) #15
  ret ptr %14
}

; Function Attrs: nounwind uwtable
define internal ptr @php_sqlite3_result_object_new(ptr noundef %0) #0 {
  %2 = alloca ptr, align 8
  %3 = alloca ptr, align 8
  store ptr %0, ptr %2, align 8, !tbaa !61
  call void @llvm.lifetime.start.p0(i64 8, ptr %3) #15
  %4 = load ptr, ptr %2, align 8, !tbaa !61
  %5 = call ptr @zend_object_alloc(i64 noundef 88, ptr noundef %4)
  store ptr %5, ptr %3, align 8, !tbaa !94
  %6 = load ptr, ptr %3, align 8, !tbaa !94
  %7 = getelementptr inbounds nuw %struct._php_sqlite3_result_object, ptr %6, i32 0, i32 5
  %8 = load ptr, ptr %2, align 8, !tbaa !61
  call void @zend_object_std_init(ptr noundef %7, ptr noundef %8)
  %9 = load ptr, ptr %3, align 8, !tbaa !94
  %10 = getelementptr inbounds nuw %struct._php_sqlite3_result_object, ptr %9, i32 0, i32 5
  %11 = load ptr, ptr %2, align 8, !tbaa !61
  call void @object_properties_init(ptr noundef %10, ptr noundef %11)
  %12 = load ptr, ptr %3, align 8, !tbaa !94
  %13 = getelementptr inbounds nuw %struct._php_sqlite3_result_object, ptr %12, i32 0, i32 5
  call void @llvm.lifetime.end.p0(i64 8, ptr %3) #15
  ret ptr %13
}