; Function Attrs: nounwind uwtable
define internal noundef nonnull ptr @php_sqlite3_result_object_new(ptr noundef %0) #0 {
  %2 = getelementptr inbounds nuw i8, ptr %0, i64 32
  %3 = load i32, ptr %2, align 8, !tbaa !181
  %4 = getelementptr inbounds nuw i8, ptr %0, i64 28
  %5 = load i32, ptr %4, align 4, !tbaa !182
  %6 = lshr i32 %5, 11
  %.lobit.i = and i32 %6, 1
  %7 = xor i32 %.lobit.i, 1
  %8 = sub nsw i32 %3, %7
  %9 = sext i32 %8 to i64
  %10 = shl nsw i64 %9, 4
  %11 = add nsw i64 %10, 88
  %12 = tail call noalias ptr @_emalloc(i64 noundef %11) #19
  tail call void @llvm.memset.p0.i64(ptr noundef nonnull align 1 dereferenceable(32) %12, i8 0, i64 32, i1 false)
  %13 = getelementptr inbounds nuw i8, ptr %12, i64 32
  tail call void @zend_object_std_init(ptr noundef nonnull %13, ptr noundef %0) #17
  tail call void @object_properties_init(ptr noundef nonnull %13, ptr noundef %0) #17
  ret ptr %13
}